ARM GAS  C:\Users\ADMINI~1\AppData\Local\Temp\ccOf2E7X.s 			page 1


   1              		.syntax unified
   2              		.cpu cortex-m3
   3              		.fpu softvfp
   4              		.eabi_attribute 20, 1
   5              		.eabi_attribute 21, 1
   6              		.eabi_attribute 23, 3
   7              		.eabi_attribute 24, 1
   8              		.eabi_attribute 25, 1
   9              		.eabi_attribute 26, 1
  10              		.eabi_attribute 30, 1
  11              		.eabi_attribute 34, 1
  12              		.eabi_attribute 18, 4
  13              		.thumb
  14              		.syntax unified
  15              		.file	"main.c"
  16              		.text
  17              	.Ltext0:
  18              		.cfi_sections	.debug_frame
  19              		.section	.text.ReadDataLCD,"ax",%progbits
  20              		.align	2
  21              		.global	ReadDataLCD
  22              		.thumb
  23              		.thumb_func
  24              		.type	ReadDataLCD, %function
  25              	ReadDataLCD:
  26              	.LFB66:
  27              		.file 1 "main.c"
   1:main.c        **** 
   2:main.c        **** #include <project.h>
   3:main.c        **** 
   4:main.c        **** /* Set the write buffer length to be 16 bites or 2 bytes */
   5:main.c        **** #define RD_BUFFER_SIZE        (2u)
   6:main.c        **** 
   7:main.c        **** 
   8:main.c        **** /*******************************************************************************
   9:main.c        **** * Function Name: main
  10:main.c        **** ********************************************************************************
  11:main.c        **** *
  12:main.c        **** * Summary:
  13:main.c        **** *  main function performs following functions:
  14:main.c        **** *   1. Starts all used components.
  15:main.c        **** *   2. Controls sequencing of ADC inputs.
  16:main.c        **** *   3. Reads ADC converted data, puts this in a read buffer to be read by the
  17:main.c        **** *       I2C Master.
  18:main.c        **** *   4. Displays ADC converted data on Character LCD.
  19:main.c        **** *
  20:main.c        **** * Parameters:
  21:main.c        **** *  None.
  22:main.c        **** *
  23:main.c        **** * Return:
  24:main.c        **** *  None.
  25:main.c        **** *
  26:main.c        **** *******************************************************************************/
  27:main.c        **** //#include <reg51.h>
  28:main.c        **** //#include <intrins.h>
  29:main.c        **** //#include <at89x51.h>
  30:main.c        **** 
ARM GAS  C:\Users\ADMINI~1\AppData\Local\Temp\ccOf2E7X.s 			page 2


  31:main.c        **** //sbit LCD_RS=P1^0;//定义引脚
  32:main.c        **** //sbit LCD_RW=P1^1;
  33:main.c        **** //sbit LCD_E=P1^2;
  34:main.c        **** //#define LCD_Data P2
  35:main.c        **** #define Busy    0x80 //用于检测LCD状态字中的Busy标识
  36:main.c        **** #define DELAY_LCD 10
  37:main.c        **** 
  38:main.c        **** 
  39:main.c        **** void WriteDataLCD(unsigned char WDLCD);
  40:main.c        **** void WriteCommandLCD(unsigned char WCLCD,char BuysC);
  41:main.c        **** unsigned char ReadDataLCD(void);
  42:main.c        **** unsigned char ReadStatusLCD(void);
  43:main.c        **** void LCDInit(void);
  44:main.c        **** void DisplayOneChar(unsigned char X, unsigned char Y, unsigned char DData);
  45:main.c        **** void DisplayListChar(unsigned char X, unsigned char Y, unsigned char  DData[]);
  46:main.c        **** void Delay5Ms(void);
  47:main.c        **** void Delay400Ms(void);
  48:main.c        **** 
  49:main.c        **** 
  50:main.c        **** unsigned char  uctech[] = "ABCDEF";
  51:main.c        **** //unsigned char  net[] = "It is Ok";
  52:main.c        **** 
  53:main.c        **** int main(void)
  54:main.c        **** {
  55:main.c        ****     char i=0;
  56:main.c        ****  Delay400Ms(); //启动等待，等LCD讲入工作状态
  57:main.c        ****  LCDInit(); //LCM初始化
  58:main.c        ****  Delay5Ms(); //延时片刻(可不要)
  59:main.c        ****     CyDelay(50);
  60:main.c        **** //for (char i = 0;i<16;i++)
  61:main.c        **** //{
  62:main.c        **** //    CyDelay(5);
  63:main.c        **** //    DisplayOneChar(i, 0, 0x31+i);
  64:main.c        **** //    CyDelay(5);
  65:main.c        **** //    
  66:main.c        **** //}
  67:main.c        **** //for (char i = 0;i<16;i++)
  68:main.c        **** //{
  69:main.c        **** //    DisplayOneChar(i, 1, 0x41+i);
  70:main.c        **** //}
  71:main.c        **** ////DisplayOneChar(0, 1, 0x30);
  72:main.c        **** //DisplayListChar(5,1,uctech);
  73:main.c        ****  while(1)
  74:main.c        **** {
  75:main.c        ****     
  76:main.c        ****     DisplayOneChar(0, 0, 0x31);
  77:main.c        ****     CyDelay(500);
  78:main.c        ****     LenRun_Write(~LenRun_Read());
  79:main.c        **** //    i++;
  80:main.c        **** //    if (i>=16)
  81:main.c        **** //    {
  82:main.c        **** //        i=0;
  83:main.c        **** //    }
  84:main.c        **** 
  85:main.c        **** }
  86:main.c        **** return 1;
  87:main.c        **** //DB_Write(WDLCD);
ARM GAS  C:\Users\ADMINI~1\AppData\Local\Temp\ccOf2E7X.s 			page 3


  88:main.c        **** //DB_Read();
  89:main.c        **** //
  90:main.c        **** //PinRS_Write();
  91:main.c        **** //PinRW_Write();
  92:main.c        **** //PinEn_Write();
  93:main.c        **** }
  94:main.c        **** 
  95:main.c        **** //写数据
  96:main.c        **** void WriteDataLCD(unsigned char WDLCD)
  97:main.c        **** {
  98:main.c        ****  ReadStatusLCD(); //检测忙
  99:main.c        **** 
 100:main.c        ****  DB_Write(WDLCD);
 101:main.c        **** 
 102:main.c        ****  PinRS_Write(1);
 103:main.c        ****  PinRW_Write(0);
 104:main.c        ****  PinEn_Write(0); //若晶振速度太高可以在这后加小的延时
 105:main.c        ****  CyDelay(DELAY_LCD);
 106:main.c        ****  PinEn_Write(0); //延时
 107:main.c        ****  PinEn_Write(1);
 108:main.c        **** }
 109:main.c        **** 
 110:main.c        **** //写指令
 111:main.c        **** void WriteCommandLCD(unsigned char WCLCD,char BuysC) //BuysC为0时忽略忙检测
 112:main.c        **** {
 113:main.c        ****  if (BuysC) ReadStatusLCD(); //根据需要检测忙
 114:main.c        ****  DB_Write(WCLCD);
 115:main.c        ****  PinRS_Write(0);
 116:main.c        ****  PinRW_Write(0); 
 117:main.c        ****  PinEn_Write(0);
 118:main.c        ****  CyDelay(DELAY_LCD);
 119:main.c        ****  PinEn_Write(0);
 120:main.c        ****  PinEn_Write(1); 
 121:main.c        **** }
 122:main.c        **** 
 123:main.c        **** //读数据
 124:main.c        **** unsigned char ReadDataLCD(void)
 125:main.c        **** {
  28              		.loc 1 125 0
  29              		.cfi_startproc
  30              		@ args = 0, pretend = 0, frame = 0
  31              		@ frame_needed = 0, uses_anonymous_args = 0
  32 0000 08B5     		push	{r3, lr}
  33              		.cfi_def_cfa_offset 8
  34              		.cfi_offset 3, -8
  35              		.cfi_offset 14, -4
 126:main.c        ****  PinRS_Write(1); 
  36              		.loc 1 126 0
  37 0002 0120     		movs	r0, #1
  38 0004 FFF7FEFF 		bl	PinRS_Write
  39              	.LVL0:
 127:main.c        ****  PinRW_Write(1);
  40              		.loc 1 127 0
  41 0008 0120     		movs	r0, #1
  42 000a FFF7FEFF 		bl	PinRW_Write
  43              	.LVL1:
 128:main.c        ****  PinEn_Write(0);
ARM GAS  C:\Users\ADMINI~1\AppData\Local\Temp\ccOf2E7X.s 			page 4


  44              		.loc 1 128 0
  45 000e 0020     		movs	r0, #0
  46 0010 FFF7FEFF 		bl	PinEn_Write
  47              	.LVL2:
 129:main.c        ****  PinEn_Write(0);
  48              		.loc 1 129 0
  49 0014 0020     		movs	r0, #0
  50 0016 FFF7FEFF 		bl	PinEn_Write
  51              	.LVL3:
 130:main.c        ****  PinEn_Write(1);
  52              		.loc 1 130 0
  53 001a 0120     		movs	r0, #1
  54 001c FFF7FEFF 		bl	PinEn_Write
  55              	.LVL4:
 131:main.c        ****  return(DB_Read());
  56              		.loc 1 131 0
  57 0020 FFF7FEFF 		bl	DB_Read
  58              	.LVL5:
 132:main.c        **** }
  59              		.loc 1 132 0
  60 0024 08BD     		pop	{r3, pc}
  61              		.cfi_endproc
  62              	.LFE66:
  63              		.size	ReadDataLCD, .-ReadDataLCD
  64 0026 00BF     		.section	.text.ReadStatusLCD,"ax",%progbits
  65              		.align	2
  66              		.global	ReadStatusLCD
  67              		.thumb
  68              		.thumb_func
  69              		.type	ReadStatusLCD, %function
  70              	ReadStatusLCD:
  71              	.LFB67:
 133:main.c        **** 
 134:main.c        **** //读状态
 135:main.c        **** unsigned char ReadStatusLCD(void)
 136:main.c        **** {
  72              		.loc 1 136 0
  73              		.cfi_startproc
  74              		@ args = 0, pretend = 0, frame = 0
  75              		@ frame_needed = 0, uses_anonymous_args = 0
  76 0000 08B5     		push	{r3, lr}
  77              		.cfi_def_cfa_offset 8
  78              		.cfi_offset 3, -8
  79              		.cfi_offset 14, -4
 137:main.c        ****  DB_Write(0xFF); 
  80              		.loc 1 137 0
  81 0002 FF20     		movs	r0, #255
  82 0004 FFF7FEFF 		bl	DB_Write
  83              	.LVL6:
 138:main.c        ****  PinRS_Write(0);
  84              		.loc 1 138 0
  85 0008 0020     		movs	r0, #0
  86 000a FFF7FEFF 		bl	PinRS_Write
  87              	.LVL7:
 139:main.c        ****  PinRW_Write(1);
  88              		.loc 1 139 0
  89 000e 0120     		movs	r0, #1
ARM GAS  C:\Users\ADMINI~1\AppData\Local\Temp\ccOf2E7X.s 			page 5


  90 0010 FFF7FEFF 		bl	PinRW_Write
  91              	.LVL8:
 140:main.c        ****  PinEn_Write(0);
  92              		.loc 1 140 0
  93 0014 0020     		movs	r0, #0
  94 0016 FFF7FEFF 		bl	PinEn_Write
  95              	.LVL9:
 141:main.c        ****  PinEn_Write(0);
  96              		.loc 1 141 0
  97 001a 0020     		movs	r0, #0
  98 001c FFF7FEFF 		bl	PinEn_Write
  99              	.LVL10:
 142:main.c        ****  PinEn_Write(1);
 100              		.loc 1 142 0
 101 0020 0120     		movs	r0, #1
 102 0022 FFF7FEFF 		bl	PinEn_Write
 103              	.LVL11:
 104              	.L4:
 143:main.c        ****  while (DB_Read() & Busy); //检测忙信号
 105              		.loc 1 143 0 discriminator 1
 106 0026 FFF7FEFF 		bl	DB_Read
 107              	.LVL12:
 108 002a 10F0800F 		tst	r0, #128
 109 002e FAD1     		bne	.L4
 144:main.c        ****  return(DB_Read());
 110              		.loc 1 144 0
 111 0030 FFF7FEFF 		bl	DB_Read
 112              	.LVL13:
 145:main.c        **** }
 113              		.loc 1 145 0
 114 0034 08BD     		pop	{r3, pc}
 115              		.cfi_endproc
 116              	.LFE67:
 117              		.size	ReadStatusLCD, .-ReadStatusLCD
 118 0036 00BF     		.section	.text.WriteDataLCD,"ax",%progbits
 119              		.align	2
 120              		.global	WriteDataLCD
 121              		.thumb
 122              		.thumb_func
 123              		.type	WriteDataLCD, %function
 124              	WriteDataLCD:
 125              	.LFB64:
  97:main.c        ****  ReadStatusLCD(); //检测忙
 126              		.loc 1 97 0
 127              		.cfi_startproc
 128              		@ args = 0, pretend = 0, frame = 0
 129              		@ frame_needed = 0, uses_anonymous_args = 0
 130              	.LVL14:
 131 0000 10B5     		push	{r4, lr}
 132              		.cfi_def_cfa_offset 8
 133              		.cfi_offset 4, -8
 134              		.cfi_offset 14, -4
 135 0002 0446     		mov	r4, r0
  98:main.c        **** 
 136              		.loc 1 98 0
 137 0004 FFF7FEFF 		bl	ReadStatusLCD
 138              	.LVL15:
ARM GAS  C:\Users\ADMINI~1\AppData\Local\Temp\ccOf2E7X.s 			page 6


 100:main.c        **** 
 139              		.loc 1 100 0
 140 0008 2046     		mov	r0, r4
 141 000a FFF7FEFF 		bl	DB_Write
 142              	.LVL16:
 102:main.c        ****  PinRW_Write(0);
 143              		.loc 1 102 0
 144 000e 0120     		movs	r0, #1
 145 0010 FFF7FEFF 		bl	PinRS_Write
 146              	.LVL17:
 103:main.c        ****  PinEn_Write(0); //若晶振速度太高可以在这后加小的延时
 147              		.loc 1 103 0
 148 0014 0020     		movs	r0, #0
 149 0016 FFF7FEFF 		bl	PinRW_Write
 150              	.LVL18:
 104:main.c        ****  CyDelay(DELAY_LCD);
 151              		.loc 1 104 0
 152 001a 0020     		movs	r0, #0
 153 001c FFF7FEFF 		bl	PinEn_Write
 154              	.LVL19:
 105:main.c        ****  PinEn_Write(0); //延时
 155              		.loc 1 105 0
 156 0020 0A20     		movs	r0, #10
 157 0022 FFF7FEFF 		bl	CyDelay
 158              	.LVL20:
 106:main.c        ****  PinEn_Write(1);
 159              		.loc 1 106 0
 160 0026 0020     		movs	r0, #0
 161 0028 FFF7FEFF 		bl	PinEn_Write
 162              	.LVL21:
 107:main.c        **** }
 163              		.loc 1 107 0
 164 002c 0120     		movs	r0, #1
 165 002e FFF7FEFF 		bl	PinEn_Write
 166              	.LVL22:
 167 0032 10BD     		pop	{r4, pc}
 168              		.cfi_endproc
 169              	.LFE64:
 170              		.size	WriteDataLCD, .-WriteDataLCD
 171              		.section	.text.WriteCommandLCD,"ax",%progbits
 172              		.align	2
 173              		.global	WriteCommandLCD
 174              		.thumb
 175              		.thumb_func
 176              		.type	WriteCommandLCD, %function
 177              	WriteCommandLCD:
 178              	.LFB65:
 112:main.c        ****  if (BuysC) ReadStatusLCD(); //根据需要检测忙
 179              		.loc 1 112 0
 180              		.cfi_startproc
 181              		@ args = 0, pretend = 0, frame = 0
 182              		@ frame_needed = 0, uses_anonymous_args = 0
 183              	.LVL23:
 184 0000 10B5     		push	{r4, lr}
 185              		.cfi_def_cfa_offset 8
 186              		.cfi_offset 4, -8
 187              		.cfi_offset 14, -4
ARM GAS  C:\Users\ADMINI~1\AppData\Local\Temp\ccOf2E7X.s 			page 7


 188 0002 0446     		mov	r4, r0
 113:main.c        ****  DB_Write(WCLCD);
 189              		.loc 1 113 0
 190 0004 09B1     		cbz	r1, .L9
 113:main.c        ****  DB_Write(WCLCD);
 191              		.loc 1 113 0 is_stmt 0 discriminator 1
 192 0006 FFF7FEFF 		bl	ReadStatusLCD
 193              	.LVL24:
 194              	.L9:
 114:main.c        ****  PinRS_Write(0);
 195              		.loc 1 114 0 is_stmt 1
 196 000a 2046     		mov	r0, r4
 197 000c FFF7FEFF 		bl	DB_Write
 198              	.LVL25:
 115:main.c        ****  PinRW_Write(0); 
 199              		.loc 1 115 0
 200 0010 0020     		movs	r0, #0
 201 0012 FFF7FEFF 		bl	PinRS_Write
 202              	.LVL26:
 116:main.c        ****  PinEn_Write(0);
 203              		.loc 1 116 0
 204 0016 0020     		movs	r0, #0
 205 0018 FFF7FEFF 		bl	PinRW_Write
 206              	.LVL27:
 117:main.c        ****  CyDelay(DELAY_LCD);
 207              		.loc 1 117 0
 208 001c 0020     		movs	r0, #0
 209 001e FFF7FEFF 		bl	PinEn_Write
 210              	.LVL28:
 118:main.c        ****  PinEn_Write(0);
 211              		.loc 1 118 0
 212 0022 0A20     		movs	r0, #10
 213 0024 FFF7FEFF 		bl	CyDelay
 214              	.LVL29:
 119:main.c        ****  PinEn_Write(1); 
 215              		.loc 1 119 0
 216 0028 0020     		movs	r0, #0
 217 002a FFF7FEFF 		bl	PinEn_Write
 218              	.LVL30:
 120:main.c        **** }
 219              		.loc 1 120 0
 220 002e 0120     		movs	r0, #1
 221 0030 FFF7FEFF 		bl	PinEn_Write
 222              	.LVL31:
 223 0034 10BD     		pop	{r4, pc}
 224              		.cfi_endproc
 225              	.LFE65:
 226              		.size	WriteCommandLCD, .-WriteCommandLCD
 227 0036 00BF     		.section	.text.LCDInit,"ax",%progbits
 228              		.align	2
 229              		.global	LCDInit
 230              		.thumb
 231              		.thumb_func
 232              		.type	LCDInit, %function
 233              	LCDInit:
 234              	.LFB68:
 146:main.c        **** 
ARM GAS  C:\Users\ADMINI~1\AppData\Local\Temp\ccOf2E7X.s 			page 8


 147:main.c        **** void LCDInit(void) //LCM初始化
 148:main.c        **** {
 235              		.loc 1 148 0
 236              		.cfi_startproc
 237              		@ args = 0, pretend = 0, frame = 0
 238              		@ frame_needed = 0, uses_anonymous_args = 0
 239 0000 08B5     		push	{r3, lr}
 240              		.cfi_def_cfa_offset 8
 241              		.cfi_offset 3, -8
 242              		.cfi_offset 14, -4
 149:main.c        ****  DB_Write(0x00);
 243              		.loc 1 149 0
 244 0002 0020     		movs	r0, #0
 245 0004 FFF7FEFF 		bl	DB_Write
 246              	.LVL32:
 150:main.c        ****  WriteCommandLCD(0x38,1); //三次显示模式设置，不检测忙信号
 247              		.loc 1 150 0
 248 0008 0121     		movs	r1, #1
 249 000a 3820     		movs	r0, #56
 250 000c FFF7FEFF 		bl	WriteCommandLCD
 251              	.LVL33:
 151:main.c        ****  Delay5Ms(); 
 152:main.c        ****  WriteCommandLCD(0x38,1);
 252              		.loc 1 152 0
 253 0010 0121     		movs	r1, #1
 254 0012 3820     		movs	r0, #56
 255 0014 FFF7FEFF 		bl	WriteCommandLCD
 256              	.LVL34:
 153:main.c        ****  Delay5Ms(); 
 154:main.c        ****  WriteCommandLCD(0x38,1);
 257              		.loc 1 154 0
 258 0018 0121     		movs	r1, #1
 259 001a 3820     		movs	r0, #56
 260 001c FFF7FEFF 		bl	WriteCommandLCD
 261              	.LVL35:
 155:main.c        ****  Delay5Ms(); 
 156:main.c        **** 
 157:main.c        ****  WriteCommandLCD(0x38,1); //显示模式设置,开始要求每次检测忙信号 
 262              		.loc 1 157 0
 263 0020 0121     		movs	r1, #1
 264 0022 3820     		movs	r0, #56
 265 0024 FFF7FEFF 		bl	WriteCommandLCD
 266              	.LVL36:
 158:main.c        ****  WriteCommandLCD(0x08,1); //关闭显示
 267              		.loc 1 158 0
 268 0028 0121     		movs	r1, #1
 269 002a 0820     		movs	r0, #8
 270 002c FFF7FEFF 		bl	WriteCommandLCD
 271              	.LVL37:
 159:main.c        ****  WriteCommandLCD(0x01,1); //显示清屏
 272              		.loc 1 159 0
 273 0030 0121     		movs	r1, #1
 274 0032 0846     		mov	r0, r1
 275 0034 FFF7FEFF 		bl	WriteCommandLCD
 276              	.LVL38:
 160:main.c        ****  WriteCommandLCD(0x06,1); // 显示光标移动设置 
 277              		.loc 1 160 0
ARM GAS  C:\Users\ADMINI~1\AppData\Local\Temp\ccOf2E7X.s 			page 9


 278 0038 0121     		movs	r1, #1
 279 003a 0620     		movs	r0, #6
 280 003c FFF7FEFF 		bl	WriteCommandLCD
 281              	.LVL39:
 161:main.c        ****  WriteCommandLCD(0x0C,1); // 显示开及光标设置
 282              		.loc 1 161 0
 283 0040 0121     		movs	r1, #1
 284 0042 0C20     		movs	r0, #12
 285 0044 FFF7FEFF 		bl	WriteCommandLCD
 286              	.LVL40:
 287 0048 08BD     		pop	{r3, pc}
 288              		.cfi_endproc
 289              	.LFE68:
 290              		.size	LCDInit, .-LCDInit
 291 004a 00BF     		.section	.text.DisplayOneChar,"ax",%progbits
 292              		.align	2
 293              		.global	DisplayOneChar
 294              		.thumb
 295              		.thumb_func
 296              		.type	DisplayOneChar, %function
 297              	DisplayOneChar:
 298              	.LFB69:
 162:main.c        **** }
 163:main.c        **** 
 164:main.c        **** //按指定位置显示一个字符
 165:main.c        **** void DisplayOneChar(unsigned char X, unsigned char Y, unsigned char DData)
 166:main.c        **** {
 299              		.loc 1 166 0
 300              		.cfi_startproc
 301              		@ args = 0, pretend = 0, frame = 0
 302              		@ frame_needed = 0, uses_anonymous_args = 0
 303              	.LVL41:
 304 0000 10B5     		push	{r4, lr}
 305              		.cfi_def_cfa_offset 8
 306              		.cfi_offset 4, -8
 307              		.cfi_offset 14, -4
 308 0002 1446     		mov	r4, r2
 309              	.LVL42:
 167:main.c        ****  Y &= 0x1;
 168:main.c        ****  X &= 0xF; //限制X不能大于15，Y不能大于1
 310              		.loc 1 168 0
 311 0004 00F00F00 		and	r0, r0, #15
 312              	.LVL43:
 169:main.c        ****  if (Y) X |= 0x40; //当要显示第二行时地址码+0x40;
 313              		.loc 1 169 0
 314 0008 11F0010F 		tst	r1, #1
 315 000c 01D0     		beq	.L14
 316              		.loc 1 169 0 is_stmt 0 discriminator 1
 317 000e 40F04000 		orr	r0, r0, #64
 318              	.LVL44:
 319              	.L14:
 170:main.c        ****  X |= 0x80; // 算出指令码
 171:main.c        ****  WriteCommandLCD(X, 1); //这里不检测忙信号，发送地址码
 320              		.loc 1 171 0 is_stmt 1
 321 0012 0121     		movs	r1, #1
 322              	.LVL45:
 323 0014 40F08000 		orr	r0, r0, #128
ARM GAS  C:\Users\ADMINI~1\AppData\Local\Temp\ccOf2E7X.s 			page 10


 324              	.LVL46:
 325 0018 FFF7FEFF 		bl	WriteCommandLCD
 326              	.LVL47:
 172:main.c        ****  Delay5Ms(); 
 173:main.c        ****  WriteDataLCD(DData);
 327              		.loc 1 173 0
 328 001c 2046     		mov	r0, r4
 329 001e FFF7FEFF 		bl	WriteDataLCD
 330              	.LVL48:
 331 0022 10BD     		pop	{r4, pc}
 332              		.cfi_endproc
 333              	.LFE69:
 334              		.size	DisplayOneChar, .-DisplayOneChar
 335              		.section	.text.main,"ax",%progbits
 336              		.align	2
 337              		.global	main
 338              		.thumb
 339              		.thumb_func
 340              		.type	main, %function
 341              	main:
 342              	.LFB63:
  54:main.c        ****     char i=0;
 343              		.loc 1 54 0
 344              		.cfi_startproc
 345              		@ args = 0, pretend = 0, frame = 0
 346              		@ frame_needed = 0, uses_anonymous_args = 0
 347 0000 08B5     		push	{r3, lr}
 348              		.cfi_def_cfa_offset 8
 349              		.cfi_offset 3, -8
 350              		.cfi_offset 14, -4
 351              	.LVL49:
  57:main.c        ****  Delay5Ms(); //延时片刻(可不要)
 352              		.loc 1 57 0
 353 0002 FFF7FEFF 		bl	LCDInit
 354              	.LVL50:
  59:main.c        **** //for (char i = 0;i<16;i++)
 355              		.loc 1 59 0
 356 0006 3220     		movs	r0, #50
 357 0008 FFF7FEFF 		bl	CyDelay
 358              	.LVL51:
 359              	.L17:
  76:main.c        ****     CyDelay(500);
 360              		.loc 1 76 0 discriminator 1
 361 000c 3122     		movs	r2, #49
 362 000e 0021     		movs	r1, #0
 363 0010 0846     		mov	r0, r1
 364 0012 FFF7FEFF 		bl	DisplayOneChar
 365              	.LVL52:
  77:main.c        ****     LenRun_Write(~LenRun_Read());
 366              		.loc 1 77 0 discriminator 1
 367 0016 4FF4FA70 		mov	r0, #500
 368 001a FFF7FEFF 		bl	CyDelay
 369              	.LVL53:
  78:main.c        **** //    i++;
 370              		.loc 1 78 0 discriminator 1
 371 001e FFF7FEFF 		bl	LenRun_Read
 372              	.LVL54:
ARM GAS  C:\Users\ADMINI~1\AppData\Local\Temp\ccOf2E7X.s 			page 11


 373 0022 C043     		mvns	r0, r0
 374 0024 C0B2     		uxtb	r0, r0
 375 0026 FFF7FEFF 		bl	LenRun_Write
 376              	.LVL55:
 377 002a EFE7     		b	.L17
 378              		.cfi_endproc
 379              	.LFE63:
 380              		.size	main, .-main
 381              		.section	.text.DisplayListChar,"ax",%progbits
 382              		.align	2
 383              		.global	DisplayListChar
 384              		.thumb
 385              		.thumb_func
 386              		.type	DisplayListChar, %function
 387              	DisplayListChar:
 388              	.LFB70:
 174:main.c        **** }
 175:main.c        **** 
 176:main.c        **** //按指定位置显示一串字符
 177:main.c        **** void DisplayListChar(unsigned char X, unsigned char Y, unsigned char  DData[])
 178:main.c        **** {
 389              		.loc 1 178 0
 390              		.cfi_startproc
 391              		@ args = 0, pretend = 0, frame = 0
 392              		@ frame_needed = 0, uses_anonymous_args = 0
 393              	.LVL56:
 394 0000 F8B5     		push	{r3, r4, r5, r6, r7, lr}
 395              		.cfi_def_cfa_offset 24
 396              		.cfi_offset 3, -24
 397              		.cfi_offset 4, -20
 398              		.cfi_offset 5, -16
 399              		.cfi_offset 6, -12
 400              		.cfi_offset 7, -8
 401              		.cfi_offset 14, -4
 402 0002 1646     		mov	r6, r2
 403              	.LVL57:
 179:main.c        ****  unsigned char ListLength;
 180:main.c        **** 
 181:main.c        ****   ListLength = 0;
 182:main.c        ****  Y &= 0x1;
 404              		.loc 1 182 0
 405 0004 01F00107 		and	r7, r1, #1
 406              	.LVL58:
 183:main.c        ****  X &= 0xF; //限制X不能大于15，Y不能大于1
 407              		.loc 1 183 0
 408 0008 00F00F05 		and	r5, r0, #15
 409              	.LVL59:
 181:main.c        ****  Y &= 0x1;
 410              		.loc 1 181 0
 411 000c 0024     		movs	r4, #0
 184:main.c        ****  while (DData[ListLength]>=0x20) //若到达字串尾则退出
 412              		.loc 1 184 0
 413 000e 09E0     		b	.L21
 414              	.LVL60:
 415              	.L22:
 185:main.c        ****   {
 186:main.c        ****    if (X <= 0xF) //X坐标应小于0xF
ARM GAS  C:\Users\ADMINI~1\AppData\Local\Temp\ccOf2E7X.s 			page 12


 416              		.loc 1 186 0
 417 0010 0F2D     		cmp	r5, #15
 418 0012 07D8     		bhi	.L21
 187:main.c        ****     {
 188:main.c        ****      DisplayOneChar(X, Y, DData[ListLength]); //显示单个字符
 419              		.loc 1 188 0
 420 0014 3946     		mov	r1, r7
 421 0016 2846     		mov	r0, r5
 422 0018 FFF7FEFF 		bl	DisplayOneChar
 423              	.LVL61:
 189:main.c        ****      ListLength++;
 424              		.loc 1 189 0
 425 001c 0134     		adds	r4, r4, #1
 426              	.LVL62:
 427 001e E4B2     		uxtb	r4, r4
 428              	.LVL63:
 190:main.c        ****      X++;
 429              		.loc 1 190 0
 430 0020 0135     		adds	r5, r5, #1
 431              	.LVL64:
 432 0022 EDB2     		uxtb	r5, r5
 433              	.LVL65:
 434              	.L21:
 184:main.c        ****   {
 435              		.loc 1 184 0
 436 0024 325D     		ldrb	r2, [r6, r4]	@ zero_extendqisi2
 437 0026 1F2A     		cmp	r2, #31
 438 0028 F2D8     		bhi	.L22
 191:main.c        ****     }
 192:main.c        ****   }
 193:main.c        **** }
 439              		.loc 1 193 0
 440 002a F8BD     		pop	{r3, r4, r5, r6, r7, pc}
 441              		.cfi_endproc
 442              	.LFE70:
 443              		.size	DisplayListChar, .-DisplayListChar
 444              		.section	.text.Delay5Ms,"ax",%progbits
 445              		.align	2
 446              		.global	Delay5Ms
 447              		.thumb
 448              		.thumb_func
 449              		.type	Delay5Ms, %function
 450              	Delay5Ms:
 451              	.LFB71:
 194:main.c        **** 
 195:main.c        **** //5ms延时
 196:main.c        **** void Delay5Ms(void)
 197:main.c        **** {
 452              		.loc 1 197 0
 453              		.cfi_startproc
 454              		@ args = 0, pretend = 0, frame = 0
 455              		@ frame_needed = 0, uses_anonymous_args = 0
 456              		@ link register save eliminated.
 457              	.LVL66:
 198:main.c        ****  unsigned int TempCyc = 5552;
 458              		.loc 1 198 0
 459 0000 41F2B053 		movw	r3, #5552
ARM GAS  C:\Users\ADMINI~1\AppData\Local\Temp\ccOf2E7X.s 			page 13


 199:main.c        ****  while(TempCyc--);
 460              		.loc 1 199 0
 461 0004 00E0     		b	.L25
 462              	.LVL67:
 463              	.L26:
 464 0006 1346     		mov	r3, r2
 465              	.LVL68:
 466              	.L25:
 467              		.loc 1 199 0 is_stmt 0 discriminator 1
 468 0008 5A1E     		subs	r2, r3, #1
 469              	.LVL69:
 470 000a 002B     		cmp	r3, #0
 471 000c FBD1     		bne	.L26
 200:main.c        **** }
 472              		.loc 1 200 0 is_stmt 1
 473 000e 7047     		bx	lr
 474              		.cfi_endproc
 475              	.LFE71:
 476              		.size	Delay5Ms, .-Delay5Ms
 477              		.section	.text.Delay400Ms,"ax",%progbits
 478              		.align	2
 479              		.global	Delay400Ms
 480              		.thumb
 481              		.thumb_func
 482              		.type	Delay400Ms, %function
 483              	Delay400Ms:
 484              	.LFB72:
 201:main.c        **** 
 202:main.c        **** //400ms延时
 203:main.c        **** void Delay400Ms(void)
 204:main.c        **** {
 485              		.loc 1 204 0
 486              		.cfi_startproc
 487              		@ args = 0, pretend = 0, frame = 0
 488              		@ frame_needed = 0, uses_anonymous_args = 0
 489              		@ link register save eliminated.
 490              	.LVL70:
 205:main.c        ****  unsigned char TempCycA = 5;
 491              		.loc 1 205 0
 492 0000 0522     		movs	r2, #5
 206:main.c        ****  unsigned int TempCycB;
 207:main.c        ****  while(TempCycA--)
 493              		.loc 1 207 0
 494 0002 07E0     		b	.L28
 495              	.LVL71:
 496              	.L30:
 208:main.c        ****  {
 209:main.c        ****   TempCycB=7269;
 210:main.c        ****   while(TempCycB--);
 497              		.loc 1 210 0
 498 0004 1346     		mov	r3, r2
 499 0006 01E0     		b	.L29
 500              	.LVL72:
 501              	.L31:
 502 0008 41F66543 		movw	r3, #7269
 503              	.L29:
 504              	.LVL73:
ARM GAS  C:\Users\ADMINI~1\AppData\Local\Temp\ccOf2E7X.s 			page 14


 505              		.loc 1 210 0 is_stmt 0 discriminator 1
 506 000c 5A1E     		subs	r2, r3, #1
 507              	.LVL74:
 508 000e 002B     		cmp	r3, #0
 509 0010 F8D1     		bne	.L30
 207:main.c        ****  {
 510              		.loc 1 207 0 is_stmt 1
 511 0012 0A46     		mov	r2, r1
 512              	.LVL75:
 513              	.L28:
 514 0014 531E     		subs	r3, r2, #1
 515 0016 D9B2     		uxtb	r1, r3
 516              	.LVL76:
 517 0018 002A     		cmp	r2, #0
 518 001a F5D1     		bne	.L31
 211:main.c        ****  };
 212:main.c        **** }...
 519              		.loc 1 212 0
 520 001c 7047     		bx	lr
 521              		.cfi_endproc
 522              	.LFE72:
 523              		.size	Delay400Ms, .-Delay400Ms
 524              		.global	uctech
 525 001e 00BF     		.data
 526              		.align	2
 527              		.type	uctech, %object
 528              		.size	uctech, 7
 529              	uctech:
 530 0000 41424344 		.ascii	"ABCDEF\000"
 530      454600
 531              		.text
 532              	.Letext0:
 533              		.file 2 "c:\\program files (x86)\\cypress\\psoc creator\\4.2\\psoc creator\\import\\gnu\\arm\\5.4.
 534              		.file 3 "c:\\program files (x86)\\cypress\\psoc creator\\4.2\\psoc creator\\import\\gnu\\arm\\5.4.
 535              		.file 4 "Generated_Source\\PSoC5/core_cm3.h"
 536              		.file 5 "Generated_Source\\PSoC5/PinRS.h"
 537              		.file 6 "Generated_Source\\PSoC5/PinRW.h"
 538              		.file 7 "Generated_Source\\PSoC5/PinEn.h"
 539              		.file 8 "Generated_Source\\PSoC5/DB.h"
 540              		.file 9 "Generated_Source\\PSoC5/CyLib.h"
 541              		.file 10 "Generated_Source\\PSoC5/LenRun.h"